target datalayout = "e-m:e-p270:32:32-p271:32:32-p272:64:64-i64:64-i128:128-f80:128-n8:16:32:64-S128"
target triple = "x86_64-pc-linux-gnu"

; Function Attrs: null_pointer_is_valid sspstrong uwtable
define internal void @OUT_RXStringV(ptr noundef %0, i32 noundef %1, i32 noundef %2) #0 {
  %4 = alloca ptr, align 8
  %5 = alloca i32, align 4
  %6 = alloca i32, align 4
  %7 = alloca ptr, align 8
  %8 = alloca ptr, align 8
  %9 = alloca i32, align 4
  %10 = alloca i32, align 4
  %11 = alloca i32, align 4
  store ptr %0, ptr %4, align 8
  store i32 %1, ptr %5, align 4
  store i32 %2, ptr %6, align 4
  call void @llvm.lifetime.start.p0(i64 8, ptr %7) #9
  %12 = load ptr, ptr %4, align 8
  %13 = call ptr @ptvcursor_tvbuff(ptr noundef %12)
  store ptr %13, ptr %7, align 8
  call void @llvm.lifetime.start.p0(i64 8, ptr %8) #9
  %14 = call ptr @wmem_packet_scope()
  %15 = load i32, ptr %6, align 4
  %16 = add i32 %15, 1
  %17 = zext i32 %16 to i64
  %18 = call noalias ptr @wmem_strbuf_new_sized(ptr noundef %14, i64 noundef %17)
  store ptr %18, ptr %8, align 8
  call void @llvm.lifetime.start.p0(i64 4, ptr %9) #9
  %19 = load ptr, ptr %4, align 8
  %20 = call i32 @ptvcursor_current_offset(ptr noundef %19)
  store i32 %20, ptr %9, align 4
  call void @llvm.lifetime.start.p0(i64 4, ptr %10) #9
  %21 = load i32, ptr %9, align 4
  store i32 %21, ptr %10, align 4
  call void @llvm.lifetime.start.p0(i64 4, ptr %11) #9
  store i32 0, ptr %11, align 4
  br label %22

22:                                               ; preds = %34, %3
  %23 = load i32, ptr %11, align 4
  %24 = load i32, ptr %6, align 4
  %25 = icmp ult i32 %23, %24
  br i1 %25, label %26, label %37

26:                                               ; preds = %22
  %27 = load ptr, ptr %8, align 8
  %28 = load ptr, ptr %7, align 8
  %29 = load i32, ptr %9, align 4
  %30 = call i32 @tvb_get_ntohl(ptr noundef %28, i32 noundef %29)
  %31 = trunc i32 %30 to i8
  call void @wmem_strbuf_append_c(ptr noundef %27, i8 noundef signext %31)
  %32 = load i32, ptr %9, align 4
  %33 = add i32 %32, 4
  store i32 %33, ptr %9, align 4
  br label %34

34:                                               ; preds = %26
  %35 = load i32, ptr %11, align 4
  %36 = add i32 %35, 1
  store i32 %36, ptr %11, align 4
  br label %22, !llvm.loop !35

37:                                               ; preds = %22
  %38 = load ptr, ptr %8, align 8
  %39 = call zeroext i1 @wmem_strbuf_utf8_validate(ptr noundef %38, ptr noundef null)
  br i1 %39, label %42, label %40

40:                                               ; preds = %37
  %41 = load ptr, ptr %8, align 8
  call void @wmem_strbuf_utf8_make_valid(ptr noundef %41)
  br label %42

42:                                               ; preds = %40, %37
  %43 = load ptr, ptr %4, align 8
  %44 = call ptr @ptvcursor_tree(ptr noundef %43)
  %45 = load i32, ptr %5, align 4
  %46 = load ptr, ptr %7, align 8
  %47 = load i32, ptr %10, align 4
  %48 = load i32, ptr %6, align 4
  %49 = mul i32 %48, 4
  %50 = load ptr, ptr %8, align 8
  %51 = call ptr @wmem_strbuf_finalize(ptr noundef %50)
  %52 = call ptr @proto_tree_add_string(ptr noundef %44, i32 noundef %45, ptr noundef %46, i32 noundef %47, i32 noundef %49, ptr noundef %51)
  %53 = load ptr, ptr %4, align 8
  %54 = load i32, ptr %6, align 4
  %55 = mul i32 %54, 4
  call void @ptvcursor_advance(ptr noundef %53, i32 noundef %55)
  call void @llvm.lifetime.end.p0(i64 4, ptr %11) #9
  call void @llvm.lifetime.end.p0(i64 4, ptr %10) #9
  call void @llvm.lifetime.end.p0(i64 4, ptr %9) #9
  call void @llvm.lifetime.end.p0(i64 8, ptr %8) #9
  call void @llvm.lifetime.end.p0(i64 8, ptr %7) #9
  ret void
}