; Function Attrs: null_pointer_is_valid sspstrong uwtable
define internal fastcc void @OUT_RXStringV(ptr noundef %0, i32 noundef %1, i32 noundef range(i32 32, 1025) %2) unnamed_addr #0 {
  %4 = tail call ptr @ptvcursor_tvbuff(ptr noundef %0)
  %5 = tail call ptr @wmem_packet_scope()
  %6 = add nuw nsw i32 %2, 1
  %7 = zext nneg i32 %6 to i64
  %8 = tail call noalias ptr @wmem_strbuf_new_sized(ptr noundef %5, i64 noundef %7)
  %9 = tail call i32 @ptvcursor_current_offset(ptr noundef %0)
  br label %10

10:                                               ; preds = %3, %10
  %.023 = phi i32 [ 0, %3 ], [ %14, %10 ]
  %.02022 = phi i32 [ %9, %3 ], [ %13, %10 ]
  %11 = tail call i32 @tvb_get_ntohl(ptr noundef %4, i32 noundef %.02022)
  %12 = trunc i32 %11 to i8
  tail call void @wmem_strbuf_append_c(ptr noundef %8, i8 noundef signext %12)
  %13 = add i32 %.02022, 4
  %14 = add nuw nsw i32 %.023, 1
  %exitcond.not = icmp eq i32 %14, %2
  br i1 %exitcond.not, label %15, label %10, !llvm.loop !39

15:                                               ; preds = %10
  %16 = tail call zeroext i1 @wmem_strbuf_utf8_validate(ptr noundef %8, ptr noundef null)
  br i1 %16, label %18, label %17

17:                                               ; preds = %15
  tail call void @wmem_strbuf_utf8_make_valid(ptr noundef %8)
  br label %18

18:                                               ; preds = %17, %15
  %19 = tail call ptr @ptvcursor_tree(ptr noundef %0)
  %20 = shl nuw nsw i32 %2, 2
  %21 = tail call ptr @wmem_strbuf_finalize(ptr noundef %8)
  %22 = tail call ptr @proto_tree_add_string(ptr noundef %19, i32 noundef %1, ptr noundef %4, i32 noundef %9, i32 noundef %20, ptr noundef %21)
  tail call void @ptvcursor_advance(ptr noundef %0, i32 noundef %20)
  ret void
}